; Function Attrs: nounwind uwtable
define ptr @l_Lean_SMap_switch___at_Lean_Meta_initFn____x40_Lean_Meta_Tactic_ElimInfo___hyg_2474____spec__1(ptr noundef %0) #1 {
  %2 = getelementptr inbounds nuw i8, ptr %0, i64 8
  %3 = getelementptr inbounds nuw i8, ptr %0, i64 24
  %4 = load i8, ptr %3, align 1, !tbaa !14
  %5 = icmp eq i8 %4, 0
  br i1 %5, label %45, label %6

6:                                                ; preds = %1
  %.val = load i32, ptr %0, align 4, !tbaa !4
  %7 = icmp eq i32 %.val, 1
  br i1 %7, label %8, label %9

8:                                                ; preds = %6
  store i8 0, ptr %3, align 1, !tbaa !14
  br label %45

9:                                                ; preds = %6
  %10 = load ptr, ptr %2, align 8, !tbaa !9
  %11 = getelementptr inbounds nuw i8, ptr %0, i64 16
  %12 = load ptr, ptr %11, align 8, !tbaa !9
  %13 = ptrtoint ptr %12 to i64
  %14 = and i64 %13, 1
  %.not = icmp eq i64 %14, 0
  br i1 %.not, label %15, label %lean_inc.exit20

15:                                               ; preds = %9
  %.val.i = load i32, ptr %12, align 4, !tbaa !4
  %16 = icmp sgt i32 %.val.i, 0
  br i1 %16, label %17, label %19, !prof !11

17:                                               ; preds = %15
  %18 = add nuw i32 %.val.i, 1
  store i32 %18, ptr %12, align 4, !tbaa !4
  br label %lean_inc.exit20

19:                                               ; preds = %15
  %.not.i21 = icmp eq i32 %.val.i, 0
  br i1 %.not.i21, label %lean_inc.exit20, label %20

20:                                               ; preds = %19
  tail call void @lean_inc_ref_cold(ptr noundef nonnull %12) #5
  br label %lean_inc.exit20

lean_inc.exit20:                                  ; preds = %20, %19, %17, %9
  %21 = ptrtoint ptr %10 to i64
  %22 = and i64 %21, 1
  %.not25 = icmp eq i64 %22, 0
  br i1 %.not25, label %23, label %lean_inc.exit

23:                                               ; preds = %lean_inc.exit20
  %.val.i22 = load i32, ptr %10, align 4, !tbaa !4
  %24 = icmp sgt i32 %.val.i22, 0
  br i1 %24, label %25, label %27, !prof !11

25:                                               ; preds = %23
  %26 = add nuw i32 %.val.i22, 1
  store i32 %26, ptr %10, align 4, !tbaa !4
  br label %lean_inc.exit

27:                                               ; preds = %23
  %.not.i23 = icmp eq i32 %.val.i22, 0
  br i1 %.not.i23, label %lean_inc.exit, label %28

28:                                               ; preds = %27
  tail call void @lean_inc_ref_cold(ptr noundef nonnull %10) #5
  br label %lean_inc.exit

lean_inc.exit:                                    ; preds = %28, %27, %25, %lean_inc.exit20
  %29 = ptrtoint ptr %0 to i64
  %30 = and i64 %29, 1
  %.not26 = icmp eq i64 %30, 0
  br i1 %.not26, label %31, label %lean_dec.exit

31:                                               ; preds = %lean_inc.exit
  %32 = load i32, ptr %0, align 4, !tbaa !4
  %33 = icmp sgt i32 %32, 1
  br i1 %33, label %34, label %36, !prof !11

34:                                               ; preds = %31
  %35 = add nsw i32 %32, -1
  store i32 %35, ptr %0, align 4, !tbaa !4
  br label %lean_dec.exit

36:                                               ; preds = %31
  %.not.i = icmp eq i32 %32, 0
  br i1 %.not.i, label %lean_dec.exit, label %37

37:                                               ; preds = %36
  tail call void @lean_dec_ref_cold(ptr noundef nonnull %0) #5
  br label %lean_dec.exit

lean_dec.exit:                                    ; preds = %37, %36, %34, %lean_inc.exit
  tail call void @lean_inc_heartbeat() #5
  %38 = tail call noalias ptr @mi_malloc_small(i64 noundef 32) #5
  %39 = icmp eq ptr %38, null
  br i1 %39, label %40, label %lean_alloc_ctor.exit

40:                                               ; preds = %lean_dec.exit
  tail call void @lean_internal_panic_out_of_memory() #6
  unreachable

lean_alloc_ctor.exit:                             ; preds = %lean_dec.exit
  %41 = getelementptr inbounds nuw i8, ptr %38, i64 4
  %42 = getelementptr inbounds nuw i8, ptr %38, i64 24
  store i64 0, ptr %42, align 8, !tbaa !12
  store i32 1, ptr %38, align 4, !tbaa !4
  store i32 131104, ptr %41, align 4
  %43 = getelementptr inbounds nuw i8, ptr %38, i64 8
  store ptr %10, ptr %43, align 8, !tbaa !9
  %44 = getelementptr inbounds nuw i8, ptr %38, i64 16
  store ptr %12, ptr %44, align 8, !tbaa !9
  br label %45

45:                                               ; preds = %8, %lean_alloc_ctor.exit, %1
  %.0 = phi ptr [ %0, %1 ], [ %0, %8 ], [ %38, %lean_alloc_ctor.exit ]
  ret ptr %.0
}